target datalayout = "e-m:e-p270:32:32-p271:32:32-p272:64:64-i64:64-i128:128-f80:128-n8:16:32:64-S128"
target triple = "x86_64-pc-linux-gnu"

@tcpcl_handle = internal global ptr null, align 8
@magic = internal constant [4 x i8] c"dtn!", align 1

; Function Attrs: null_pointer_is_valid sspstrong uwtable
define internal zeroext i1 @dissect_tcpcl_heur(ptr noundef %0, ptr noundef %1, ptr noundef %2, ptr noundef %3) #0 {
  %5 = alloca i1, align 1
  %6 = alloca ptr, align 8
  %7 = alloca ptr, align 8
  %8 = alloca ptr, align 8
  %9 = alloca ptr, align 8
  %10 = alloca ptr, align 8
  store ptr %0, ptr %6, align 8
  store ptr %1, ptr %7, align 8
  store ptr %2, ptr %8, align 8
  store ptr %3, ptr %9, align 8
  %11 = load ptr, ptr %6, align 8
  %12 = call i32 @tvb_reported_length(ptr noundef %11)
  %13 = icmp ult i32 %12, 6
  br i1 %13, label %14, label %15

14:                                               ; preds = %4
  store i1 false, ptr %5, align 1
  br label %30

15:                                               ; preds = %4
  %16 = load ptr, ptr %6, align 8
  %17 = call i32 @tvb_memeql(ptr noundef %16, i32 noundef 0, ptr noundef @magic, i64 noundef 4)
  %18 = icmp ne i32 %17, 0
  br i1 %18, label %19, label %20

19:                                               ; preds = %15
  store i1 false, ptr %5, align 1
  br label %30

20:                                               ; preds = %15
  call void @llvm.lifetime.start.p0(i64 8, ptr %10) #11
  %21 = load ptr, ptr %7, align 8
  %22 = call ptr @find_or_create_conversation(ptr noundef %21)
  store ptr %22, ptr %10, align 8
  %23 = load ptr, ptr %10, align 8
  %24 = load ptr, ptr @tcpcl_handle, align 8
  call void @conversation_set_dissector(ptr noundef %23, ptr noundef %24)
  %25 = load ptr, ptr %6, align 8
  %26 = load ptr, ptr %7, align 8
  %27 = load ptr, ptr %8, align 8
  %28 = load ptr, ptr %9, align 8
  %29 = call i32 @dissect_tcpcl(ptr noundef %25, ptr noundef %26, ptr noundef %27, ptr noundef %28)
  store i1 true, ptr %5, align 1
  call void @llvm.lifetime.end.p0(i64 8, ptr %10) #11
  br label %30

30:                                               ; preds = %20, %19, %14
  %31 = load i1, ptr %5, align 1
  ret i1 %31
}