; Function Attrs: null_pointer_is_valid sspstrong uwtable
define internal noundef zeroext i1 @dissect_tcpcl_heur(ptr noundef %0, ptr noundef %1, ptr noundef %2, ptr readnone captures(none) %3) #0 {
  %5 = tail call i32 @tvb_reported_length(ptr noundef %0)
  %6 = icmp ult i32 %5, 6
  br i1 %6, label %13, label %7

7:                                                ; preds = %4
  %8 = tail call i32 @tvb_memeql(ptr noundef %0, i32 noundef 0, ptr noundef nonnull @magic, i64 noundef 4)
  %.not = icmp eq i32 %8, 0
  br i1 %.not, label %9, label %13

9:                                                ; preds = %7
  %10 = tail call ptr @find_or_create_conversation(ptr noundef %1)
  %11 = load ptr, ptr @tcpcl_handle, align 8
  tail call void @conversation_set_dissector(ptr noundef %10, ptr noundef %11)
  %12 = tail call i32 @dissect_tcpcl(ptr noundef %0, ptr noundef %1, ptr noundef %2, ptr poison)
  br label %13

13:                                               ; preds = %7, %4, %9
  %.0 = phi i1 [ true, %9 ], [ false, %4 ], [ false, %7 ]
  ret i1 %.0
}